target datalayout = "e-m:e-p270:32:32-p271:32:32-p272:64:64-i64:64-i128:128-f80:128-n8:16:32:64-S128"
target triple = "x86_64-pc-linux-gnu"

%struct.rhash_hash_info = type { ptr, i64, i64, ptr, ptr, ptr, ptr }
%struct.rhash_info = type { i32, i32, i64, ptr, ptr }

@rhash_info_table = external global ptr, align 8

; Function Attrs: nounwind uwtable
define dso_local i32 @rhash_get_digest_size(i32 noundef %0) #0 {
  %2 = alloca i32, align 4
  %3 = alloca i32, align 4
  store i32 %0, ptr %3, align 4, !tbaa !4
  %4 = load i32, ptr %3, align 4, !tbaa !4
  %5 = and i32 %4, 1023
  store i32 %5, ptr %3, align 4, !tbaa !4
  %6 = load i32, ptr %3, align 4, !tbaa !4
  %7 = icmp eq i32 %6, 0
  br i1 %7, label %14, label %8

8:                                                ; preds = %1
  %9 = load i32, ptr %3, align 4, !tbaa !4
  %10 = load i32, ptr %3, align 4, !tbaa !4
  %11 = sub i32 %10, 1
  %12 = and i32 %9, %11
  %13 = icmp ne i32 %12, 0
  br i1 %13, label %14, label %15

14:                                               ; preds = %8, %1
  store i32 -1, ptr %2, align 4
  br label %26

15:                                               ; preds = %8
  %16 = load ptr, ptr @rhash_info_table, align 8, !tbaa !15
  %17 = load i32, ptr %3, align 4, !tbaa !4
  %18 = call i32 @llvm.cttz.i32(i32 %17, i1 true)
  %19 = sext i32 %18 to i64
  %20 = getelementptr inbounds %struct.rhash_hash_info, ptr %16, i64 %19
  %21 = getelementptr inbounds nuw %struct.rhash_hash_info, ptr %20, i32 0, i32 0
  %22 = load ptr, ptr %21, align 8, !tbaa !47
  %23 = getelementptr inbounds nuw %struct.rhash_info, ptr %22, i32 0, i32 2
  %24 = load i64, ptr %23, align 8, !tbaa !48
  %25 = trunc i64 %24 to i32
  store i32 %25, ptr %2, align 4
  br label %26

26:                                               ; preds = %15, %14
  %27 = load i32, ptr %2, align 4
  ret i32 %27
}