; Function Attrs: mustprogress nofree norecurse nosync nounwind willreturn memory(read, inaccessiblemem: none) uwtable
define dso_local i32 @rhash_get_digest_size(i32 noundef %0) local_unnamed_addr #11 {
  %2 = and i32 %0, 1023
  %3 = tail call range(i32 0, 11) i32 @llvm.ctpop.i32(i32 %2)
  %or.cond = icmp eq i32 %3, 1
  br i1 %or.cond, label %4, label %13

4:                                                ; preds = %1
  %5 = load ptr, ptr @rhash_info_table, align 8, !tbaa !18
  %6 = tail call range(i32 0, 33) i32 @llvm.cttz.i32(i32 %2, i1 true)
  %7 = zext nneg i32 %6 to i64
  %8 = getelementptr inbounds nuw %struct.rhash_hash_info, ptr %5, i64 %7
  %9 = load ptr, ptr %8, align 8, !tbaa !36
  %10 = getelementptr inbounds nuw i8, ptr %9, i64 8
  %11 = load i64, ptr %10, align 8, !tbaa !37
  %12 = trunc i64 %11 to i32
  br label %13

13:                                               ; preds = %1, %4
  %.0 = phi i32 [ %12, %4 ], [ -1, %1 ]
  ret i32 %.0
}